target datalayout = "e-m:e-p270:32:32-p271:32:32-p272:64:64-i64:64-i128:128-f80:128-n8:16:32:64-S128"
target triple = "x86_64-pc-linux-gnu"

@.str.56 = private unnamed_addr constant [5 x i8] c"vec2\00", align 1

; Function Attrs: mustprogress uwtable
define dso_local noundef ptr @_Z12lua_vec2_getP9lua_Statei(ptr noundef %0, i32 noundef %1) #4 {
  %3 = alloca ptr, align 8
  %4 = alloca i32, align 4
  %5 = alloca ptr, align 8
  store ptr %0, ptr %3, align 8
  store i32 %1, ptr %4, align 4
  %6 = load ptr, ptr %3, align 8
  %7 = load i32, ptr %4, align 4
  %8 = call noundef ptr @_Z20lua_touserdatataggedP9lua_Stateii(ptr noundef %6, i32 noundef %7, i32 noundef 12)
  store ptr %8, ptr %5, align 8
  %9 = load ptr, ptr %5, align 8
  %10 = icmp ne ptr %9, null
  br i1 %10, label %11, label %13

11:                                               ; preds = %2
  %12 = load ptr, ptr %5, align 8
  ret ptr %12

13:                                               ; preds = %2
  %14 = load ptr, ptr %3, align 8
  %15 = load i32, ptr %4, align 4
  call void @_Z15luaL_typeerrorLP9lua_StateiPKc(ptr noundef %14, i32 noundef %15, ptr noundef @.str.56) #19
  unreachable
}